; Function Attrs: null_pointer_is_valid sspstrong uwtable
define internal zeroext i16 @de_bssgp_ran_inf_app_error_rim_cont(ptr noundef %0, ptr noundef %1, ptr noundef %2, i32 noundef %3, i32 noundef %4, ptr readnone captures(none) %5, i32 %6) #1 {
  %8 = tail call zeroext i16 @elem_telv(ptr noundef %0, ptr noundef %1, ptr noundef %2, i8 noundef zeroext 75, i32 noundef 13, i32 noundef 49, i32 noundef %3, i32 noundef %4, ptr noundef null)
  %.not = icmp eq i16 %8, 0
  br i1 %.not, label %13, label %9

9:                                                ; preds = %7
  %10 = zext i16 %8 to i32
  %11 = add i32 %3, %10
  %12 = sub i32 %4, %10
  br label %16

13:                                               ; preds = %7
  %14 = tail call ptr @get_gsm_a_msg_string(i32 noundef 13, i32 noundef 49)
  %15 = tail call ptr (ptr, ptr, ptr, ptr, i32, i32, ptr, ...) @proto_tree_add_expert_format(ptr noundef %1, ptr noundef %2, ptr noundef nonnull @ei_bssgp_missing_mandatory_element, ptr noundef %0, i32 noundef %3, i32 noundef 0, ptr noundef nonnull @.str.6, i32 noundef 75, ptr noundef %14, ptr noundef nonnull @.str.7)
  br label %16

16:                                               ; preds = %13, %9
  %.075 = phi i32 [ %11, %9 ], [ %3, %13 ]
  %.0 = phi i32 [ %12, %9 ], [ %4, %13 ]
  %17 = tail call zeroext i16 @elem_telv(ptr noundef %0, ptr noundef %1, ptr noundef %2, i8 noundef zeroext 76, i32 noundef 13, i32 noundef 50, i32 noundef %.075, i32 noundef %.0, ptr noundef null)
  %.not86 = icmp eq i16 %17, 0
  br i1 %.not86, label %22, label %18

18:                                               ; preds = %16
  %19 = zext i16 %17 to i32
  %20 = add i32 %.075, %19
  %21 = sub i32 %.0, %19
  br label %25

22:                                               ; preds = %16
  %23 = tail call ptr @get_gsm_a_msg_string(i32 noundef 13, i32 noundef 50)
  %24 = tail call ptr (ptr, ptr, ptr, ptr, i32, i32, ptr, ...) @proto_tree_add_expert_format(ptr noundef %1, ptr noundef %2, ptr noundef nonnull @ei_bssgp_missing_mandatory_element, ptr noundef %0, i32 noundef %.075, i32 noundef 0, ptr noundef nonnull @.str.6, i32 noundef 76, ptr noundef %23, ptr noundef nonnull @.str.7)
  br label %25

25:                                               ; preds = %22, %18
  %.176 = phi i32 [ %20, %18 ], [ %.075, %22 ]
  %.1 = phi i32 [ %21, %18 ], [ %.0, %22 ]
  %26 = tail call zeroext i16 @elem_telv(ptr noundef %0, ptr noundef %1, ptr noundef %2, i8 noundef zeroext 79, i32 noundef 13, i32 noundef 59, i32 noundef %.176, i32 noundef %.1, ptr noundef null)
  %.not87 = icmp eq i16 %26, 0
  br i1 %.not87, label %31, label %27

27:                                               ; preds = %25
  %28 = zext i16 %26 to i32
  %29 = add i32 %.176, %28
  %30 = sub i32 %.1, %28
  br label %34

31:                                               ; preds = %25
  %32 = tail call ptr @get_gsm_a_msg_string(i32 noundef 13, i32 noundef 59)
  %33 = tail call ptr (ptr, ptr, ptr, ptr, i32, i32, ptr, ...) @proto_tree_add_expert_format(ptr noundef %1, ptr noundef %2, ptr noundef nonnull @ei_bssgp_missing_mandatory_element, ptr noundef %0, i32 noundef %.176, i32 noundef 0, ptr noundef nonnull @.str.6, i32 noundef 79, ptr noundef %32, ptr noundef nonnull @.str.7)
  br label %34

34:                                               ; preds = %31, %27
  %.277 = phi i32 [ %29, %27 ], [ %.176, %31 ]
  %.2 = phi i32 [ %30, %27 ], [ %.1, %31 ]
  %.not88 = icmp eq i32 %.2, 0
  br i1 %.not88, label %41, label %35

35:                                               ; preds = %34
  %36 = tail call zeroext i16 @elem_telv(ptr noundef %0, ptr noundef %1, ptr noundef %2, i8 noundef zeroext 85, i32 noundef 13, i32 noundef 60, i32 noundef %.277, i32 noundef %.2, ptr noundef null)
  %.not89 = icmp eq i16 %36, 0
  br i1 %.not89, label %41, label %37

37:                                               ; preds = %35
  %38 = zext i16 %36 to i32
  %39 = add i32 %.277, %38
  %40 = sub i32 %.2, %38
  br label %41

41:                                               ; preds = %35, %37, %34
  %.378 = phi i32 [ %39, %37 ], [ %.277, %35 ], [ %.277, %34 ]
  %.3 = phi i32 [ %40, %37 ], [ %.2, %35 ], [ 0, %34 ]
  %42 = tail call zeroext i16 @elem_telv(ptr noundef %0, ptr noundef %1, ptr noundef %2, i8 noundef zeroext 86, i32 noundef 13, i32 noundef 58, i32 noundef %.378, i32 noundef %.3, ptr noundef null)
  %.not90 = icmp eq i16 %42, 0
  br i1 %.not90, label %47, label %43

43:                                               ; preds = %41
  %44 = zext i16 %42 to i32
  %45 = add i32 %.378, %44
  %46 = sub i32 %.3, %44
  br label %50

47:                                               ; preds = %41
  %48 = tail call ptr @get_gsm_a_msg_string(i32 noundef 13, i32 noundef 58)
  %49 = tail call ptr (ptr, ptr, ptr, ptr, i32, i32, ptr, ...) @proto_tree_add_expert_format(ptr noundef %1, ptr noundef %2, ptr noundef nonnull @ei_bssgp_missing_mandatory_element, ptr noundef %0, i32 noundef %.378, i32 noundef 0, ptr noundef nonnull @.str.6, i32 noundef 86, ptr noundef %48, ptr noundef nonnull @.str.7)
  br label %50

50:                                               ; preds = %47, %43
  %.479 = phi i32 [ %45, %43 ], [ %.378, %47 ]
  %.4 = phi i32 [ %46, %43 ], [ %.3, %47 ]
  %.not91 = icmp eq i32 %.4, 0
  br i1 %.not91, label %56, label %51

51:                                               ; preds = %50
  %52 = tail call zeroext i16 @elem_telv(ptr noundef %0, ptr noundef %1, ptr noundef %2, i8 noundef zeroext -124, i32 noundef 13, i32 noundef 98, i32 noundef %.479, i32 noundef %.4, ptr noundef null)
  %.not92 = icmp eq i16 %52, 0
  br i1 %.not92, label %56, label %53

53:                                               ; preds = %51
  %54 = zext i16 %52 to i32
  %55 = add i32 %.479, %54
  br label %56

56:                                               ; preds = %51, %53, %50
  %.5 = phi i32 [ %55, %53 ], [ %.479, %51 ], [ %.479, %50 ]
  %57 = sub i32 %.5, %3
  %58 = trunc i32 %57 to i16
  ret i16 %58
}